; Function Attrs: mustprogress nounwind uwtable
define void @_ZN5Ipopt12LoqoMuOracleD2Ev(ptr noundef nonnull align 8 captures(none) dereferenceable(49) initializes((0, 8)) %0) unnamed_addr #4 align 2 personality ptr @__gxx_personality_v0 {
  store ptr getelementptr inbounds nuw inrange(-16, 24) (i8, ptr @_ZTVN5Ipopt23AlgorithmStrategyObjectE, i64 16), ptr %0, align 8, !tbaa !8
  %2 = getelementptr inbounds nuw i8, ptr %0, i64 40
  %3 = load ptr, ptr %2, align 8, !tbaa !10
  %.not.i.i.i = icmp eq ptr %3, null
  br i1 %.not.i.i.i, label %_ZN5Ipopt8SmartPtrINS_25IpoptCalculatedQuantitiesEED2Ev.exit.i, label %4

4:                                                ; preds = %1
  %5 = getelementptr inbounds nuw i8, ptr %3, i64 8
  %6 = load i32, ptr %5, align 8, !tbaa !3
  %7 = add nsw i32 %6, -1
  store i32 %7, ptr %5, align 8, !tbaa !3
  %8 = icmp eq i32 %7, 0
  br i1 %8, label %9, label %_ZN5Ipopt8SmartPtrINS_25IpoptCalculatedQuantitiesEED2Ev.exit.i

9:                                                ; preds = %4
  %10 = load ptr, ptr %3, align 8, !tbaa !8
  %11 = getelementptr inbounds nuw i8, ptr %10, i64 8
  %12 = load ptr, ptr %11, align 8
  tail call void %12(ptr noundef nonnull align 8 dereferenceable(2185) %3) #12
  store ptr null, ptr %2, align 8, !tbaa !10
  br label %_ZN5Ipopt8SmartPtrINS_25IpoptCalculatedQuantitiesEED2Ev.exit.i

_ZN5Ipopt8SmartPtrINS_25IpoptCalculatedQuantitiesEED2Ev.exit.i: ; preds = %9, %4, %1
  %13 = getelementptr inbounds nuw i8, ptr %0, i64 32
  %14 = load ptr, ptr %13, align 8, !tbaa !14
  %.not.i.i1.i = icmp eq ptr %14, null
  br i1 %.not.i.i1.i, label %_ZN5Ipopt8SmartPtrINS_9IpoptDataEED2Ev.exit.i, label %15

15:                                               ; preds = %_ZN5Ipopt8SmartPtrINS_25IpoptCalculatedQuantitiesEED2Ev.exit.i
  %16 = getelementptr inbounds nuw i8, ptr %14, i64 8
  %17 = load i32, ptr %16, align 8, !tbaa !3
  %18 = add nsw i32 %17, -1
  store i32 %18, ptr %16, align 8, !tbaa !3
  %19 = icmp eq i32 %18, 0
  br i1 %19, label %20, label %_ZN5Ipopt8SmartPtrINS_9IpoptDataEED2Ev.exit.i

20:                                               ; preds = %15
  %21 = load ptr, ptr %14, align 8, !tbaa !8
  %22 = getelementptr inbounds nuw i8, ptr %21, i64 8
  %23 = load ptr, ptr %22, align 8
  tail call void %23(ptr noundef nonnull align 8 dereferenceable(2232) %14) #12
  store ptr null, ptr %13, align 8, !tbaa !14
  br label %_ZN5Ipopt8SmartPtrINS_9IpoptDataEED2Ev.exit.i

_ZN5Ipopt8SmartPtrINS_9IpoptDataEED2Ev.exit.i:    ; preds = %20, %15, %_ZN5Ipopt8SmartPtrINS_25IpoptCalculatedQuantitiesEED2Ev.exit.i
  %24 = getelementptr inbounds nuw i8, ptr %0, i64 24
  %25 = load ptr, ptr %24, align 8, !tbaa !17
  %.not.i.i2.i = icmp eq ptr %25, null
  br i1 %.not.i.i2.i, label %_ZN5Ipopt8SmartPtrINS_8IpoptNLPEED2Ev.exit.i, label %26

26:                                               ; preds = %_ZN5Ipopt8SmartPtrINS_9IpoptDataEED2Ev.exit.i
  %27 = getelementptr inbounds nuw i8, ptr %25, i64 8
  %28 = load i32, ptr %27, align 8, !tbaa !3
  %29 = add nsw i32 %28, -1
  store i32 %29, ptr %27, align 8, !tbaa !3
  %30 = icmp eq i32 %29, 0
  br i1 %30, label %31, label %_ZN5Ipopt8SmartPtrINS_8IpoptNLPEED2Ev.exit.i

31:                                               ; preds = %26
  %32 = load ptr, ptr %25, align 8, !tbaa !8
  %33 = getelementptr inbounds nuw i8, ptr %32, i64 8
  %34 = load ptr, ptr %33, align 8
  tail call void %34(ptr noundef nonnull align 8 dereferenceable(24) %25) #12
  store ptr null, ptr %24, align 8, !tbaa !17
  br label %_ZN5Ipopt8SmartPtrINS_8IpoptNLPEED2Ev.exit.i

_ZN5Ipopt8SmartPtrINS_8IpoptNLPEED2Ev.exit.i:     ; preds = %31, %26, %_ZN5Ipopt8SmartPtrINS_9IpoptDataEED2Ev.exit.i
  %35 = getelementptr inbounds nuw i8, ptr %0, i64 16
  %36 = load ptr, ptr %35, align 8, !tbaa !20
  %.not.i.i3.i = icmp eq ptr %36, null
  br i1 %.not.i.i3.i, label %_ZN5Ipopt23AlgorithmStrategyObjectD2Ev.exit, label %37

37:                                               ; preds = %_ZN5Ipopt8SmartPtrINS_8IpoptNLPEED2Ev.exit.i
  %38 = getelementptr inbounds nuw i8, ptr %36, i64 8
  %39 = load i32, ptr %38, align 8, !tbaa !3
  %40 = add nsw i32 %39, -1
  store i32 %40, ptr %38, align 8, !tbaa !3
  %41 = icmp eq i32 %40, 0
  br i1 %41, label %42, label %_ZN5Ipopt23AlgorithmStrategyObjectD2Ev.exit

42:                                               ; preds = %37
  %43 = load ptr, ptr %36, align 8, !tbaa !8
  %44 = getelementptr inbounds nuw i8, ptr %43, i64 8
  %45 = load ptr, ptr %44, align 8
  tail call void %45(ptr noundef nonnull align 8 dereferenceable(40) %36) #12
  store ptr null, ptr %35, align 8, !tbaa !20
  br label %_ZN5Ipopt23AlgorithmStrategyObjectD2Ev.exit

_ZN5Ipopt23AlgorithmStrategyObjectD2Ev.exit:      ; preds = %_ZN5Ipopt8SmartPtrINS_8IpoptNLPEED2Ev.exit.i, %37, %42
  store ptr getelementptr inbounds nuw inrange(-16, 16) (i8, ptr @_ZTVN5Ipopt16ReferencedObjectE, i64 16), ptr %0, align 8, !tbaa !8
  ret void
}